target datalayout = "e-m:e-p270:32:32-p271:32:32-p272:64:64-i64:64-i128:128-f80:128-n8:16:32:64-S128"
target triple = "x86_64-unknown-linux-gnu"

%"struct.node::AssertionInfo" = type { ptr, ptr, ptr }
%"class.std::__shared_count" = type { ptr }
%"class.std::__shared_ptr.284" = type { ptr, %"class.std::__shared_count" }

@_ZZN4node6crypto18RSAKeyExportTraits8DoExportESt10shared_ptrINS0_13KeyObjectDataEENS0_18WebCryptoKeyFormatERKNS0_18RSAKeyExportConfigEPNS0_10ByteSourceEE4args = internal constant %"struct.node::AssertionInfo" { ptr @.str.28, ptr @.str.29, ptr @.str.30 }, align 8
@_ZZN4node6crypto18RSAKeyExportTraits8DoExportESt10shared_ptrINS0_13KeyObjectDataEENS0_18WebCryptoKeyFormatERKNS0_18RSAKeyExportConfigEPNS0_10ByteSourceEE4args_0 = internal constant %"struct.node::AssertionInfo" { ptr @.str.31, ptr @.str.32, ptr @.str.30 }, align 8

; Function Attrs: mustprogress nounwind uwtable
define linkonce_odr dso_local noundef ptr @_ZNKSt19__shared_ptr_accessIN4node6crypto13KeyObjectDataELN9__gnu_cxx12_Lock_policyE2ELb0ELb0EE6_M_getEv(ptr noundef nonnull align 1 dereferenceable(1) %this) #4 comdat align 2 {
entry:
  %this.addr = alloca ptr, align 8
  store ptr %this, ptr %this.addr, align 8
  %this1 = load ptr, ptr %this.addr, align 8
  %call = call noundef ptr @_ZNKSt12__shared_ptrIN4node6crypto13KeyObjectDataELN9__gnu_cxx12_Lock_policyE2EE3getEv(ptr noundef nonnull align 8 dereferenceable(16) %this1) #3
  ret ptr %call
}

; Function Attrs: mustprogress nounwind uwtable
define internal noundef i32 @_ZN4node6crypto12_GLOBAL__N_114RSA_JWK_ExportEPNS0_13KeyObjectDataERKNS0_18RSAKeyExportConfigEPNS0_10ByteSourceE(ptr noundef %key_data, ptr noundef nonnull align 8 dereferenceable(16) %params, ptr noundef %out) #4 {
entry:
  %key_data.addr = alloca ptr, align 8
  %params.addr = alloca ptr, align 8
  %out.addr = alloca ptr, align 8
  store ptr %key_data, ptr %key_data.addr, align 8
  store ptr %params, ptr %params.addr, align 8
  store ptr %out, ptr %out.addr, align 8
  ret i32 2
}

; Function Attrs: mustprogress nounwind uwtable
define linkonce_odr dso_local noundef ptr @_ZNKSt12__shared_ptrIN4node6crypto13KeyObjectDataELN9__gnu_cxx12_Lock_policyE2EE3getEv(ptr noundef nonnull align 8 dereferenceable(16) %this) #4 comdat align 2 {
entry:
  %this.addr = alloca ptr, align 8
  store ptr %this, ptr %this.addr, align 8
  %this1 = load ptr, ptr %this.addr, align 8
  %_M_ptr = getelementptr inbounds %"class.std::__shared_ptr.284", ptr %this1, i32 0, i32 0
  %0 = load ptr, ptr %_M_ptr, align 8
  ret ptr %0
}

; Function Attrs: mustprogress nounwind uwtable
define linkonce_odr dso_local noundef ptr @_ZNKSt19__shared_ptr_accessIN4node6crypto13KeyObjectDataELN9__gnu_cxx12_Lock_policyE2ELb0ELb0EEptEv(ptr noundef nonnull align 1 dereferenceable(1) %this) #4 comdat align 2 {
entry:
  %this.addr = alloca ptr, align 8
  store ptr %this, ptr %this.addr, align 8
  %this1 = load ptr, ptr %this.addr, align 8
  %call = call noundef ptr @_ZNKSt19__shared_ptr_accessIN4node6crypto13KeyObjectDataELN9__gnu_cxx12_Lock_policyE2ELb0ELb0EE6_M_getEv(ptr noundef nonnull align 1 dereferenceable(1) %this1) #3
  ret ptr %call
}

; Function Attrs: mustprogress nounwind uwtable
define dso_local noundef i32 @_ZN4node6crypto18RSAKeyExportTraits8DoExportESt10shared_ptrINS0_13KeyObjectDataEENS0_18WebCryptoKeyFormatERKNS0_18RSAKeyExportConfigEPNS0_10ByteSourceE(ptr noundef %key_data, i32 noundef %format, ptr noundef nonnull align 8 dereferenceable(16) %params, ptr noundef %out) #4 align 2 {
entry:
  %retval = alloca i32, align 4
  %key_data.indirect_addr = alloca ptr, align 8
  %format.addr = alloca i32, align 4
  %params.addr = alloca ptr, align 8
  %out.addr = alloca ptr, align 8
  store ptr %key_data, ptr %key_data.indirect_addr, align 8
  store i32 %format, ptr %format.addr, align 4
  store ptr %params, ptr %params.addr, align 8
  store ptr %out, ptr %out.addr, align 8
  br label %do.body

do.body:                                          ; preds = %entry
  %call = call noundef ptr @_ZNKSt19__shared_ptr_accessIN4node6crypto13KeyObjectDataELN9__gnu_cxx12_Lock_policyE2ELb0ELb0EEptEv(ptr noundef nonnull align 1 dereferenceable(1) %key_data) #3
  %call1 = call noundef i32 @_ZNK4node6crypto13KeyObjectData10GetKeyTypeEv(ptr noundef nonnull align 8 dereferenceable(72) %call)
  %cmp = icmp ne i32 %call1, 0
  %lnot = xor i1 %cmp, true
  %lnot2 = xor i1 %lnot, true
  %lnot3 = xor i1 %lnot2, true
  br i1 %lnot3, label %if.then, label %if.end

if.then:                                          ; preds = %do.body
  br label %do.body4

do.body4:                                         ; preds = %if.then
  call void @_ZN4node6AssertERKNS_13AssertionInfoE(ptr noundef nonnull align 8 dereferenceable(24) @_ZZN4node6crypto18RSAKeyExportTraits8DoExportESt10shared_ptrINS0_13KeyObjectDataEENS0_18WebCryptoKeyFormatERKNS0_18RSAKeyExportConfigEPNS0_10ByteSourceEE4args)
  call void @abort() #14
  unreachable

do.end:                                           ; No predecessors!
  br label %if.end

if.end:                                           ; preds = %do.end, %do.body
  br label %do.end5

do.end5:                                          ; preds = %if.end
  %0 = load i32, ptr %format.addr, align 4
  switch i32 %0, label %sw.default [
    i32 0, label %sw.bb
    i32 3, label %sw.bb6
    i32 1, label %sw.bb9
    i32 2, label %sw.bb17
  ]

sw.bb:                                            ; preds = %do.end5
  store i32 2, ptr %retval, align 4
  br label %return

sw.bb6:                                           ; preds = %do.end5
  %call7 = call noundef ptr @_ZNKSt12__shared_ptrIN4node6crypto13KeyObjectDataELN9__gnu_cxx12_Lock_policyE2EE3getEv(ptr noundef nonnull align 8 dereferenceable(16) %key_data) #3
  %1 = load ptr, ptr %params.addr, align 8
  %2 = load ptr, ptr %out.addr, align 8
  %call8 = call noundef i32 @_ZN4node6crypto12_GLOBAL__N_114RSA_JWK_ExportEPNS0_13KeyObjectDataERKNS0_18RSAKeyExportConfigEPNS0_10ByteSourceE(ptr noundef %call7, ptr noundef nonnull align 8 dereferenceable(16) %1, ptr noundef %2)
  store i32 %call8, ptr %retval, align 4
  br label %return

sw.bb9:                                           ; preds = %do.end5
  %call10 = call noundef ptr @_ZNKSt19__shared_ptr_accessIN4node6crypto13KeyObjectDataELN9__gnu_cxx12_Lock_policyE2ELb0ELb0EEptEv(ptr noundef nonnull align 1 dereferenceable(1) %key_data) #3
  %call11 = call noundef i32 @_ZNK4node6crypto13KeyObjectData10GetKeyTypeEv(ptr noundef nonnull align 8 dereferenceable(72) %call10)
  %cmp12 = icmp ne i32 %call11, 2
  br i1 %cmp12, label %if.then13, label %if.end14

if.then13:                                        ; preds = %sw.bb9
  store i32 1, ptr %retval, align 4
  br label %return

if.end14:                                         ; preds = %sw.bb9
  %call15 = call noundef ptr @_ZNKSt12__shared_ptrIN4node6crypto13KeyObjectDataELN9__gnu_cxx12_Lock_policyE2EE3getEv(ptr noundef nonnull align 8 dereferenceable(16) %key_data) #3
  %3 = load ptr, ptr %out.addr, align 8
  %call16 = call noundef i32 @_ZN4node6crypto17PKEY_PKCS8_ExportEPNS0_13KeyObjectDataEPNS0_10ByteSourceE(ptr noundef %call15, ptr noundef %3)
  store i32 %call16, ptr %retval, align 4
  br label %return

sw.bb17:                                          ; preds = %do.end5
  %call18 = call noundef ptr @_ZNKSt19__shared_ptr_accessIN4node6crypto13KeyObjectDataELN9__gnu_cxx12_Lock_policyE2ELb0ELb0EEptEv(ptr noundef nonnull align 1 dereferenceable(1) %key_data) #3
  %call19 = call noundef i32 @_ZNK4node6crypto13KeyObjectData10GetKeyTypeEv(ptr noundef nonnull align 8 dereferenceable(72) %call18)
  %cmp20 = icmp ne i32 %call19, 1
  br i1 %cmp20, label %if.then21, label %if.end22

if.then21:                                        ; preds = %sw.bb17
  store i32 1, ptr %retval, align 4
  br label %return

if.end22:                                         ; preds = %sw.bb17
  %call23 = call noundef ptr @_ZNKSt12__shared_ptrIN4node6crypto13KeyObjectDataELN9__gnu_cxx12_Lock_policyE2EE3getEv(ptr noundef nonnull align 8 dereferenceable(16) %key_data) #3
  %4 = load ptr, ptr %out.addr, align 8
  %call24 = call noundef i32 @_ZN4node6crypto16PKEY_SPKI_ExportEPNS0_13KeyObjectDataEPNS0_10ByteSourceE(ptr noundef %call23, ptr noundef %4)
  store i32 %call24, ptr %retval, align 4
  br label %return

sw.default:                                       ; preds = %do.end5
  br label %do.body25

do.body25:                                        ; preds = %sw.default
  call void @_ZN4node6AssertERKNS_13AssertionInfoE(ptr noundef nonnull align 8 dereferenceable(24) @_ZZN4node6crypto18RSAKeyExportTraits8DoExportESt10shared_ptrINS0_13KeyObjectDataEENS0_18WebCryptoKeyFormatERKNS0_18RSAKeyExportConfigEPNS0_10ByteSourceEE4args_0)
  call void @abort() #14
  unreachable

do.end26:                                         ; No predecessors!
  br label %sw.epilog

sw.epilog:                                        ; preds = %do.end26
  call void @llvm.trap()
  unreachable

return:                                           ; preds = %if.end22, %if.then21, %if.end14, %if.then13, %sw.bb6, %sw.bb
  %5 = load i32, ptr %retval, align 4
  ret i32 %5
}