; Function Attrs: mustprogress nounwind uwtable
define dso_local noundef i32 @_ZN4node6crypto18RSAKeyExportTraits8DoExportESt10shared_ptrINS0_13KeyObjectDataEENS0_18WebCryptoKeyFormatERKNS0_18RSAKeyExportConfigEPNS0_10ByteSourceE(ptr nocapture noundef readonly %key_data, i32 noundef %format, ptr nocapture nonnull readnone align 8 %params, ptr noundef %out) local_unnamed_addr #3 align 2 {
entry:
  %0 = load ptr, ptr %key_data, align 8
  %call1 = tail call noundef i32 @_ZNK4node6crypto13KeyObjectData10GetKeyTypeEv(ptr noundef nonnull align 8 dereferenceable(72) %0) #20
  %cmp.not = icmp eq i32 %call1, 0
  br i1 %cmp.not, label %do.body4, label %do.end5

do.body4:                                         ; preds = %entry
  tail call void @_ZN4node6AssertERKNS_13AssertionInfoE(ptr noundef nonnull align 8 dereferenceable(24) @_ZZN4node6crypto18RSAKeyExportTraits8DoExportESt10shared_ptrINS0_13KeyObjectDataEENS0_18WebCryptoKeyFormatERKNS0_18RSAKeyExportConfigEPNS0_10ByteSourceEE4args) #20
  tail call void @abort() #21
  unreachable

do.end5:                                          ; preds = %entry
  switch i32 %format, label %do.body25 [
    i32 0, label %return
    i32 3, label %return
    i32 1, label %sw.bb9
    i32 2, label %sw.bb17
  ]

sw.bb9:                                           ; preds = %do.end5
  %1 = load ptr, ptr %key_data, align 8
  %call11 = tail call noundef i32 @_ZNK4node6crypto13KeyObjectData10GetKeyTypeEv(ptr noundef nonnull align 8 dereferenceable(72) %1) #20
  %cmp12.not = icmp eq i32 %call11, 2
  br i1 %cmp12.not, label %if.end14, label %return

if.end14:                                         ; preds = %sw.bb9
  %2 = load ptr, ptr %key_data, align 8
  %call16 = tail call noundef i32 @_ZN4node6crypto17PKEY_PKCS8_ExportEPNS0_13KeyObjectDataEPNS0_10ByteSourceE(ptr noundef %2, ptr noundef %out) #20
  br label %return

sw.bb17:                                          ; preds = %do.end5
  %3 = load ptr, ptr %key_data, align 8
  %call19 = tail call noundef i32 @_ZNK4node6crypto13KeyObjectData10GetKeyTypeEv(ptr noundef nonnull align 8 dereferenceable(72) %3) #20
  %cmp20.not = icmp eq i32 %call19, 1
  br i1 %cmp20.not, label %if.end22, label %return

if.end22:                                         ; preds = %sw.bb17
  %4 = load ptr, ptr %key_data, align 8
  %call24 = tail call noundef i32 @_ZN4node6crypto16PKEY_SPKI_ExportEPNS0_13KeyObjectDataEPNS0_10ByteSourceE(ptr noundef %4, ptr noundef %out) #20
  br label %return

do.body25:                                        ; preds = %do.end5
  tail call void @_ZN4node6AssertERKNS_13AssertionInfoE(ptr noundef nonnull align 8 dereferenceable(24) @_ZZN4node6crypto18RSAKeyExportTraits8DoExportESt10shared_ptrINS0_13KeyObjectDataEENS0_18WebCryptoKeyFormatERKNS0_18RSAKeyExportConfigEPNS0_10ByteSourceEE4args_0) #20
  tail call void @abort() #21
  unreachable

return:                                           ; preds = %do.end5, %sw.bb17, %sw.bb9, %do.end5, %if.end22, %if.end14
  %retval.0 = phi i32 [ %call24, %if.end22 ], [ %call16, %if.end14 ], [ 2, %do.end5 ], [ 1, %sw.bb9 ], [ 1, %sw.bb17 ], [ 2, %do.end5 ]
  ret i32 %retval.0
}